target datalayout = "e-m:e-p270:32:32-p271:32:32-p272:64:64-i64:64-i128:128-f80:128-n8:16:32:64-S128"
target triple = "x86_64-pc-linux-gnu"

%struct._GArray = type { ptr, i32 }
%struct.file_type_subtype_info = type { ptr, ptr, ptr, ptr, i8, i64, ptr, ptr, ptr, ptr }

@file_type_subtype_table_arr = internal global ptr null, align 8
@file_type_subtype_table = internal global ptr null, align 8

; Function Attrs: nounwind null_pointer_is_valid sspstrong uwtable
define ptr @wtap_file_type_subtype_description(i32 noundef %0) #2 {
  %2 = alloca ptr, align 8
  %3 = alloca i32, align 4
  store i32 %0, ptr %3, align 4
  %4 = load i32, ptr %3, align 4
  %5 = icmp slt i32 %4, 0
  br i1 %5, label %12, label %6

6:                                                ; preds = %1
  %7 = load i32, ptr %3, align 4
  %8 = load ptr, ptr @file_type_subtype_table_arr, align 8
  %9 = getelementptr inbounds nuw %struct._GArray, ptr %8, i32 0, i32 1
  %10 = load i32, ptr %9, align 8
  %11 = icmp sge i32 %7, %10
  br i1 %11, label %12, label %13

12:                                               ; preds = %6, %1
  store ptr null, ptr %2, align 8
  br label %20

13:                                               ; preds = %6
  %14 = load ptr, ptr @file_type_subtype_table, align 8
  %15 = load i32, ptr %3, align 4
  %16 = sext i32 %15 to i64
  %17 = getelementptr %struct.file_type_subtype_info, ptr %14, i64 %16
  %18 = getelementptr inbounds nuw %struct.file_type_subtype_info, ptr %17, i32 0, i32 0
  %19 = load ptr, ptr %18, align 8
  store ptr %19, ptr %2, align 8
  br label %20

20:                                               ; preds = %13, %12
  %21 = load ptr, ptr %2, align 8
  ret ptr %21
}

; Function Attrs: nounwind null_pointer_is_valid sspstrong uwtable
define internal i32 @compare_file_type_subtypes_by_description(ptr noundef %0, ptr noundef %1) #2 {
  %3 = alloca ptr, align 8
  %4 = alloca ptr, align 8
  %5 = alloca i32, align 4
  %6 = alloca i32, align 4
  store ptr %0, ptr %3, align 8
  store ptr %1, ptr %4, align 8
  call void @llvm.lifetime.start.p0(i64 4, ptr %5) #12
  %7 = load ptr, ptr %3, align 8
  %8 = load i32, ptr %7, align 4
  store i32 %8, ptr %5, align 4
  call void @llvm.lifetime.start.p0(i64 4, ptr %6) #12
  %9 = load ptr, ptr %4, align 8
  %10 = load i32, ptr %9, align 4
  store i32 %10, ptr %6, align 4
  %11 = load i32, ptr %5, align 4
  %12 = call ptr @wtap_file_type_subtype_description(i32 noundef %11)
  %13 = load i32, ptr %6, align 4
  %14 = call ptr @wtap_file_type_subtype_description(i32 noundef %13)
  %15 = call i32 @strcmp(ptr noundef %12, ptr noundef %14) #14
  call void @llvm.lifetime.end.p0(i64 4, ptr %6) #12
  call void @llvm.lifetime.end.p0(i64 4, ptr %5) #12
  ret i32 %15
}