; Function Attrs: mustprogress nofree nounwind null_pointer_is_valid sspstrong willreturn memory(read, inaccessiblemem: none) uwtable
define internal i32 @compare_file_type_subtypes_by_description(ptr noundef readonly captures(none) %0, ptr noundef readonly captures(none) %1) #13 {
  %3 = load i32, ptr %0, align 4
  %4 = load i32, ptr %1, align 4
  %5 = icmp slt i32 %3, 0
  br i1 %5, label %wtap_file_type_subtype_description.exit, label %6

6:                                                ; preds = %2
  %7 = load ptr, ptr @file_type_subtype_table_arr, align 8
  %8 = getelementptr inbounds nuw i8, ptr %7, i64 8
  %9 = load i32, ptr %8, align 8
  %.not.i = icmp slt i32 %3, %9
  br i1 %.not.i, label %10, label %wtap_file_type_subtype_description.exit

10:                                               ; preds = %6
  %11 = load ptr, ptr @file_type_subtype_table, align 8
  %12 = zext nneg i32 %3 to i64
  %13 = getelementptr %struct.file_type_subtype_info, ptr %11, i64 %12
  %14 = load ptr, ptr %13, align 8
  br label %wtap_file_type_subtype_description.exit

wtap_file_type_subtype_description.exit:          ; preds = %2, %6, %10
  %.0.i = phi ptr [ %14, %10 ], [ null, %6 ], [ null, %2 ]
  %15 = icmp slt i32 %4, 0
  br i1 %15, label %wtap_file_type_subtype_description.exit5, label %16

16:                                               ; preds = %wtap_file_type_subtype_description.exit
  %17 = load ptr, ptr @file_type_subtype_table_arr, align 8
  %18 = getelementptr inbounds nuw i8, ptr %17, i64 8
  %19 = load i32, ptr %18, align 8
  %.not.i3 = icmp slt i32 %4, %19
  br i1 %.not.i3, label %20, label %wtap_file_type_subtype_description.exit5

20:                                               ; preds = %16
  %21 = load ptr, ptr @file_type_subtype_table, align 8
  %22 = zext nneg i32 %4 to i64
  %23 = getelementptr %struct.file_type_subtype_info, ptr %21, i64 %22
  %24 = load ptr, ptr %23, align 8
  br label %wtap_file_type_subtype_description.exit5

wtap_file_type_subtype_description.exit5:         ; preds = %wtap_file_type_subtype_description.exit, %16, %20
  %.0.i4 = phi ptr [ %24, %20 ], [ null, %16 ], [ null, %wtap_file_type_subtype_description.exit ]
  %25 = tail call i32 @strcmp(ptr noundef %.0.i, ptr noundef %.0.i4) #23
  ret i32 %25
}